target datalayout = "e-m:e-p270:32:32-p271:32:32-p272:64:64-i64:64-i128:128-f80:128-n8:16:32:64-S128"
target triple = "x86_64-pc-linux-gnu"

@hf_control_latency = internal global i32 0, align 4
@hf_control_timeout = internal global i32 0, align 4
@hf_control_interval_min = internal global i32 0, align 4
@hf_control_interval_max = internal global i32 0, align 4
@hf_control_preferred_periodicity = internal global i32 0, align 4
@hf_control_reference_connection_event_count = internal global i32 0, align 4
@hf_control_offset_0 = internal global i32 0, align 4
@hf_control_offset_1 = internal global i32 0, align 4
@hf_control_offset_2 = internal global i32 0, align 4
@hf_control_offset_3 = internal global i32 0, align 4
@hf_control_offset_4 = internal global i32 0, align 4
@hf_control_offset_5 = internal global i32 0, align 4

; Function Attrs: null_pointer_is_valid sspstrong uwtable
define internal i32 @dissect_conn_param_req_rsp(ptr noundef %0, ptr noundef %1, i32 noundef %2) #0 {
  %4 = alloca ptr, align 8
  %5 = alloca ptr, align 8
  %6 = alloca i32, align 4
  store ptr %0, ptr %4, align 8
  store ptr %1, ptr %5, align 8
  store i32 %2, ptr %6, align 4
  %7 = load ptr, ptr %5, align 8
  %8 = load i32, ptr @hf_control_interval_min, align 4
  %9 = load ptr, ptr %4, align 8
  %10 = load i32, ptr %6, align 4
  %11 = call ptr @proto_tree_add_item(ptr noundef %7, i32 noundef %8, ptr noundef %9, i32 noundef %10, i32 noundef 2, i32 noundef -2147483648)
  %12 = load i32, ptr %6, align 4
  %13 = add i32 %12, 2
  store i32 %13, ptr %6, align 4
  %14 = load ptr, ptr %5, align 8
  %15 = load i32, ptr @hf_control_interval_max, align 4
  %16 = load ptr, ptr %4, align 8
  %17 = load i32, ptr %6, align 4
  %18 = call ptr @proto_tree_add_item(ptr noundef %14, i32 noundef %15, ptr noundef %16, i32 noundef %17, i32 noundef 2, i32 noundef -2147483648)
  %19 = load i32, ptr %6, align 4
  %20 = add i32 %19, 2
  store i32 %20, ptr %6, align 4
  %21 = load ptr, ptr %5, align 8
  %22 = load i32, ptr @hf_control_latency, align 4
  %23 = load ptr, ptr %4, align 8
  %24 = load i32, ptr %6, align 4
  %25 = call ptr @proto_tree_add_item(ptr noundef %21, i32 noundef %22, ptr noundef %23, i32 noundef %24, i32 noundef 2, i32 noundef -2147483648)
  %26 = load i32, ptr %6, align 4
  %27 = add i32 %26, 2
  store i32 %27, ptr %6, align 4
  %28 = load ptr, ptr %5, align 8
  %29 = load i32, ptr @hf_control_timeout, align 4
  %30 = load ptr, ptr %4, align 8
  %31 = load i32, ptr %6, align 4
  %32 = call ptr @proto_tree_add_item(ptr noundef %28, i32 noundef %29, ptr noundef %30, i32 noundef %31, i32 noundef 2, i32 noundef -2147483648)
  %33 = load i32, ptr %6, align 4
  %34 = add i32 %33, 2
  store i32 %34, ptr %6, align 4
  %35 = load ptr, ptr %5, align 8
  %36 = load i32, ptr @hf_control_preferred_periodicity, align 4
  %37 = load ptr, ptr %4, align 8
  %38 = load i32, ptr %6, align 4
  %39 = call ptr @proto_tree_add_item(ptr noundef %35, i32 noundef %36, ptr noundef %37, i32 noundef %38, i32 noundef 1, i32 noundef -2147483648)
  %40 = load i32, ptr %6, align 4
  %41 = add i32 %40, 1
  store i32 %41, ptr %6, align 4
  %42 = load ptr, ptr %5, align 8
  %43 = load i32, ptr @hf_control_reference_connection_event_count, align 4
  %44 = load ptr, ptr %4, align 8
  %45 = load i32, ptr %6, align 4
  %46 = call ptr @proto_tree_add_item(ptr noundef %42, i32 noundef %43, ptr noundef %44, i32 noundef %45, i32 noundef 2, i32 noundef -2147483648)
  %47 = load i32, ptr %6, align 4
  %48 = add i32 %47, 2
  store i32 %48, ptr %6, align 4
  %49 = load ptr, ptr %5, align 8
  %50 = load i32, ptr @hf_control_offset_0, align 4
  %51 = load ptr, ptr %4, align 8
  %52 = load i32, ptr %6, align 4
  %53 = call ptr @proto_tree_add_item(ptr noundef %49, i32 noundef %50, ptr noundef %51, i32 noundef %52, i32 noundef 2, i32 noundef -2147483648)
  %54 = load i32, ptr %6, align 4
  %55 = add i32 %54, 2
  store i32 %55, ptr %6, align 4
  %56 = load ptr, ptr %5, align 8
  %57 = load i32, ptr @hf_control_offset_1, align 4
  %58 = load ptr, ptr %4, align 8
  %59 = load i32, ptr %6, align 4
  %60 = call ptr @proto_tree_add_item(ptr noundef %56, i32 noundef %57, ptr noundef %58, i32 noundef %59, i32 noundef 2, i32 noundef -2147483648)
  %61 = load i32, ptr %6, align 4
  %62 = add i32 %61, 2
  store i32 %62, ptr %6, align 4
  %63 = load ptr, ptr %5, align 8
  %64 = load i32, ptr @hf_control_offset_2, align 4
  %65 = load ptr, ptr %4, align 8
  %66 = load i32, ptr %6, align 4
  %67 = call ptr @proto_tree_add_item(ptr noundef %63, i32 noundef %64, ptr noundef %65, i32 noundef %66, i32 noundef 2, i32 noundef -2147483648)
  %68 = load i32, ptr %6, align 4
  %69 = add i32 %68, 2
  store i32 %69, ptr %6, align 4
  %70 = load ptr, ptr %5, align 8
  %71 = load i32, ptr @hf_control_offset_3, align 4
  %72 = load ptr, ptr %4, align 8
  %73 = load i32, ptr %6, align 4
  %74 = call ptr @proto_tree_add_item(ptr noundef %70, i32 noundef %71, ptr noundef %72, i32 noundef %73, i32 noundef 2, i32 noundef -2147483648)
  %75 = load i32, ptr %6, align 4
  %76 = add i32 %75, 2
  store i32 %76, ptr %6, align 4
  %77 = load ptr, ptr %5, align 8
  %78 = load i32, ptr @hf_control_offset_4, align 4
  %79 = load ptr, ptr %4, align 8
  %80 = load i32, ptr %6, align 4
  %81 = call ptr @proto_tree_add_item(ptr noundef %77, i32 noundef %78, ptr noundef %79, i32 noundef %80, i32 noundef 2, i32 noundef -2147483648)
  %82 = load i32, ptr %6, align 4
  %83 = add i32 %82, 2
  store i32 %83, ptr %6, align 4
  %84 = load ptr, ptr %5, align 8
  %85 = load i32, ptr @hf_control_offset_5, align 4
  %86 = load ptr, ptr %4, align 8
  %87 = load i32, ptr %6, align 4
  %88 = call ptr @proto_tree_add_item(ptr noundef %84, i32 noundef %85, ptr noundef %86, i32 noundef %87, i32 noundef 2, i32 noundef -2147483648)
  %89 = load i32, ptr %6, align 4
  %90 = add i32 %89, 2
  store i32 %90, ptr %6, align 4
  %91 = load i32, ptr %6, align 4
  ret i32 %91
}