; Function Attrs: null_pointer_is_valid sspstrong uwtable
define internal fastcc range(i32 26, 28) i32 @dissect_conn_param_req_rsp(ptr noundef %0, ptr noundef %1, i32 noundef range(i32 3, 5) %2) unnamed_addr #0 {
  %4 = load i32, ptr @hf_control_interval_min, align 4
  %5 = tail call ptr @proto_tree_add_item(ptr noundef %1, i32 noundef %4, ptr noundef %0, i32 noundef %2, i32 noundef 2, i32 noundef -2147483648)
  %6 = add nuw nsw i32 %2, 2
  %7 = load i32, ptr @hf_control_interval_max, align 4
  %8 = tail call ptr @proto_tree_add_item(ptr noundef %1, i32 noundef %7, ptr noundef %0, i32 noundef %6, i32 noundef 2, i32 noundef -2147483648)
  %9 = add nuw nsw i32 %2, 4
  %10 = load i32, ptr @hf_control_latency, align 4
  %11 = tail call ptr @proto_tree_add_item(ptr noundef %1, i32 noundef %10, ptr noundef %0, i32 noundef %9, i32 noundef 2, i32 noundef -2147483648)
  %12 = add nuw nsw i32 %2, 6
  %13 = load i32, ptr @hf_control_timeout, align 4
  %14 = tail call ptr @proto_tree_add_item(ptr noundef %1, i32 noundef %13, ptr noundef %0, i32 noundef %12, i32 noundef 2, i32 noundef -2147483648)
  %15 = or disjoint i32 %2, 8
  %16 = load i32, ptr @hf_control_preferred_periodicity, align 4
  %17 = tail call ptr @proto_tree_add_item(ptr noundef %1, i32 noundef %16, ptr noundef %0, i32 noundef %15, i32 noundef 1, i32 noundef -2147483648)
  %18 = add nuw nsw i32 %2, 9
  %19 = load i32, ptr @hf_control_reference_connection_event_count, align 4
  %20 = tail call ptr @proto_tree_add_item(ptr noundef %1, i32 noundef %19, ptr noundef %0, i32 noundef %18, i32 noundef 2, i32 noundef -2147483648)
  %21 = add nuw nsw i32 %2, 11
  %22 = load i32, ptr @hf_control_offset_0, align 4
  %23 = tail call ptr @proto_tree_add_item(ptr noundef %1, i32 noundef %22, ptr noundef %0, i32 noundef %21, i32 noundef 2, i32 noundef -2147483648)
  %24 = add nuw nsw i32 %2, 13
  %25 = load i32, ptr @hf_control_offset_1, align 4
  %26 = tail call ptr @proto_tree_add_item(ptr noundef %1, i32 noundef %25, ptr noundef %0, i32 noundef %24, i32 noundef 2, i32 noundef -2147483648)
  %27 = add nuw nsw i32 %2, 15
  %28 = load i32, ptr @hf_control_offset_2, align 4
  %29 = tail call ptr @proto_tree_add_item(ptr noundef %1, i32 noundef %28, ptr noundef %0, i32 noundef %27, i32 noundef 2, i32 noundef -2147483648)
  %30 = add nuw nsw i32 %2, 17
  %31 = load i32, ptr @hf_control_offset_3, align 4
  %32 = tail call ptr @proto_tree_add_item(ptr noundef %1, i32 noundef %31, ptr noundef %0, i32 noundef %30, i32 noundef 2, i32 noundef -2147483648)
  %33 = add nuw nsw i32 %2, 19
  %34 = load i32, ptr @hf_control_offset_4, align 4
  %35 = tail call ptr @proto_tree_add_item(ptr noundef %1, i32 noundef %34, ptr noundef %0, i32 noundef %33, i32 noundef 2, i32 noundef -2147483648)
  %36 = add nuw nsw i32 %2, 21
  %37 = load i32, ptr @hf_control_offset_5, align 4
  %38 = tail call ptr @proto_tree_add_item(ptr noundef %1, i32 noundef %37, ptr noundef %0, i32 noundef %36, i32 noundef 2, i32 noundef -2147483648)
  %39 = add nuw nsw i32 %2, 23
  ret i32 %39
}